; Function Attrs: nounwind uwtable
define i32 @ossl_namemap_name2num(ptr noundef readonly captures(address_is_null) %0, ptr noundef readonly captures(address_is_null) %1) local_unnamed_addr #0 {
  %3 = alloca %struct.namenum_key_st, align 8
  call void @llvm.lifetime.start.p0(i64 80, ptr nonnull %3) #6
  %4 = icmp eq ptr %0, null
  br i1 %4, label %5, label %.thread

5:                                                ; preds = %2
  %6 = tail call ptr @ossl_namemap_stored(ptr noundef null)
  %7 = icmp eq ptr %6, null
  br i1 %7, label %28, label %.thread

.thread:                                          ; preds = %2, %5
  %.0812 = phi ptr [ %6, %5 ], [ %0, %2 ]
  %8 = getelementptr inbounds nuw i8, ptr %3, i64 16
  call void @llvm.memset.p0.i64(ptr noundef nonnull align 8 dereferenceable(80) %8, i8 0, i64 64, i1 false)
  store i64 64, ptr %3, align 8, !tbaa !19
  %9 = getelementptr inbounds nuw i8, ptr %3, i64 16
  %10 = getelementptr inbounds nuw i8, ptr %3, i64 8
  store ptr %9, ptr %10, align 8, !tbaa !24
  %11 = icmp eq ptr %1, null
  br i1 %11, label %ossl_ht_strcase.exit, label %.preheader.i

.preheader.i:                                     ; preds = %.thread
  %12 = load i8, ptr %1, align 1, !tbaa !25
  %.not.i = icmp eq i8 %12, 0
  br i1 %.not.i, label %ossl_ht_strcase.exit, label %.lr.ph.i

.lr.ph.i:                                         ; preds = %.preheader.i, %.lr.ph.i
  %indvars.iv.i = phi i64 [ %indvars.iv.next.i, %.lr.ph.i ], [ 0, %.preheader.i ]
  %13 = phi i8 [ %17, %.lr.ph.i ], [ %12, %.preheader.i ]
  %14 = and i8 %13, -33
  %15 = getelementptr inbounds nuw i8, ptr %9, i64 %indvars.iv.i
  store i8 %14, ptr %15, align 1, !tbaa !25
  %indvars.iv.next.i = add nuw nsw i64 %indvars.iv.i, 1
  %16 = getelementptr inbounds nuw i8, ptr %1, i64 %indvars.iv.next.i
  %17 = load i8, ptr %16, align 1, !tbaa !25
  %18 = icmp ne i8 %17, 0
  %19 = icmp samesign ult i64 %indvars.iv.i, 62
  %20 = select i1 %18, i1 %19, i1 false
  br i1 %20, label %.lr.ph.i, label %ossl_ht_strcase.exit, !llvm.loop !26

ossl_ht_strcase.exit:                             ; preds = %.lr.ph.i, %.thread, %.preheader.i
  %21 = getelementptr inbounds nuw i8, ptr %.0812, i64 8
  %22 = load ptr, ptr %21, align 8, !tbaa !15
  %23 = call ptr @ossl_ht_get(ptr noundef %22, ptr noundef nonnull %3) #6
  %.not = icmp eq ptr %23, null
  br i1 %.not, label %28, label %24

24:                                               ; preds = %ossl_ht_strcase.exit
  %25 = load ptr, ptr %23, align 8, !tbaa !27
  %26 = ptrtoint ptr %25 to i64
  %27 = trunc i64 %26 to i32
  br label %28

28:                                               ; preds = %ossl_ht_strcase.exit, %24, %5
  %.0 = phi i32 [ 0, %5 ], [ %27, %24 ], [ 0, %ossl_ht_strcase.exit ]
  call void @llvm.lifetime.end.p0(i64 80, ptr nonnull %3) #6
  ret i32 %.0
}